(lp0
S'http://www.iitkgp.ac.in/commdir3/list.php?division=3&deptcode=AE'
p1
aS'http://www.iitkgp.ac.in/commdir3/list.php?division=3&deptcode=AG'
p2
aS'http://www.iitkgp.ac.in/commdir3/list.php?division=3&deptcode=AR'
p3
aS'http://www.iitkgp.ac.in/commdir3/list.php?division=3&deptcode=BT'
p4
aS'http://www.iitkgp.ac.in/commdir3/list.php?division=3&deptcode=CH'
p5
aS'http://www.iitkgp.ac.in/commdir3/list.php?division=3&deptcode=CM'
p6
aS'http://www.iitkgp.ac.in/commdir3/list.php?division=3&deptcode=CE'
p7
aS'http://www.iitkgp.ac.in/commdir3/list.php?division=3&deptcode=CS'
p8
aS'http://www.iitkgp.ac.in/commdir3/list.php?division=3&deptcode=CR'
p9
aS'http://www.iitkgp.ac.in/commdir3/list.php?division=3&deptcode=EE'
p10
aS'http://www.iitkgp.ac.in/commdir3/list.php?division=3&deptcode=EC'
p11
aS'http://www.iitkgp.ac.in/commdir3/list.php?division=3&deptcode=MG'
p12
aS'http://www.iitkgp.ac.in/commdir3/list.php?division=3&deptcode=GS'
p13
aS'http://www.iitkgp.ac.in/commdir3/list.php?division=3&deptcode=HS'
p14
aS'http://www.iitkgp.ac.in/commdir3/list.php?division=3&deptcode=IM'
p15
aS'http://www.iitkgp.ac.in/commdir3/list.php?division=3&deptcode=IT'
p16
aS'http://www.iitkgp.ac.in/commdir3/list.php?division=3&deptcode=MS'
p17
aS'http://www.iitkgp.ac.in/commdir3/list.php?division=3&deptcode=MM'
p18
aS'http://www.iitkgp.ac.in/commdir3/list.php?division=3&deptcode=ME'
p19
aS'http://www.iitkgp.ac.in/commdir3/list.php?division=3&deptcode=MD'
p20
aS'http://www.iitkgp.ac.in/commdir3/list.php?division=3&deptcode=MT'
p21
aS'http://www.iitkgp.ac.in/commdir3/list.php?division=3&deptcode=MI'
p22
aS'http://www.iitkgp.ac.in/commdir3/list.php?division=3&deptcode=NA'
p23
aS'http://www.iitkgp.ac.in/commdir3/list.php?division=3&deptcode=N2'
p24
aS'http://www.iitkgp.ac.in/commdir3/list.php?division=3&deptcode=MP'
p25
aS'http://www.iitkgp.ac.in/commdir3/list.php?division=3&deptcode=RG'
p26
aS'http://www.iitkgp.ac.in/commdir3/list.php?division=3&deptcode=RJ'
p27
aS'http://www.iitkgp.ac.in/commdir3/list.php?division=3&deptcode=RE'
p28
aS'http://www.iitkgp.ac.in/commdir3/list.php?division=3&deptcode=RT'
p29
aS'http://www.iitkgp.ac.in/commdir3/list.php?division=3&deptcode=ID'
p30
aS'http://www.iitkgp.ac.in/commdir3/list.php?division=3&deptcode=RD'
p31
aS'http://www.iitkgp.ac.in/commdir3/list.php?division=3&deptcode=WM'
p32
aS'http://www.iitkgp.ac.in/commdir3/list.php?division=3&deptcode=SM'
p33
a.