(lp0
S'http://www.iitkgp.ac.in/fac-profiles/showprofile.php?empcode=aVmUY&depts_name=CS'
p1
aS'http://www.iitkgp.ac.in/fac-profiles/showprofile.php?empcode=ZVmUS&depts_name=CS'
p2
aS'http://www.iitkgp.ac.in/fac-profiles/showprofile.php?empcode=SUmUT&depts_name=CS'
p3
aS'http://www.iitkgp.ac.in/fac-profiles/showprofile.php?empcode=bZmVR&depts_name=CS'
p4
aS'http://www.iitkgp.ac.in/fac-profiles/showprofile.php?empcode=ZZmVV&depts_name=CS'
p5
aS'http://www.iitkgp.ac.in/fac-profiles/showprofile.php?empcode=STmdT&depts_name=CS'
p6
aS'http://www.iitkgp.ac.in/fac-profiles/showprofile.php?empcode=2bgYS&depts_name=CS'
p7
aS'http://www.iitkgp.ac.in/fac-profiles/showprofile.php?empcode=bTmWY&depts_name=CS'
p8
aS'http://www.iitkgp.ac.in/fac-profiles/showprofile.php?empcode=SSmUZ&depts_name=CS'
p9
aS'http://www.iitkgp.ac.in/fac-profiles/showprofile.php?empcode=aWmVT&depts_name=CS'
p10
aS'http://www.iitkgp.ac.in/fac-profiles/showprofile.php?empcode=ZWmVQ&depts_name=CS'
p11
aS'http://www.iitkgp.ac.in/fac-profiles/showprofile.php?empcode=SVmUR&depts_name=CS'
p12
aS'http://www.iitkgp.ac.in/fac-profiles/showprofile.php?empcode=bWmdV&depts_name=CS'
p13
aS'http://www.iitkgp.ac.in/fac-profiles/showprofile.php?empcode=YamdR&depts_name=CS'
p14
aS'http://www.iitkgp.ac.in/fac-profiles/showprofile.php?empcode=SWmdQ&depts_name=CS'
p15
aS'http://www.iitkgp.ac.in/fac-profiles/showprofile.php?empcode=aadVT&depts_name=CS'
p16
aS'http://www.iitkgp.ac.in/fac-profiles/showprofile.php?empcode=bbddU&depts_name=CS'
p17
aS'http://www.iitkgp.ac.in/fac-profiles/showprofile.php?empcode=zSfdU&depts_name=CS'
p18
aS'http://www.iitkgp.ac.in/fac-profiles/showprofile.php?empcode=aVmUY&depts_name=CS'
p19
aS'http://www.iitkgp.ac.in/fac-profiles/showprofile.php?empcode=aadWW&depts_name=CS'
p20
aS'http://www.iitkgp.ac.in/fac-profiles/showprofile.php?empcode=2bgYW&depts_name=CS'
p21
aS'http://www.iitkgp.ac.in/fac-profiles/showprofile.php?empcode=SVmdR&depts_name=CS'
p22
aS'http://www.iitkgp.ac.in/fac-profiles/showprofile.php?empcode=bWmdW&depts_name=CS'
p23
aS'http://www.iitkgp.ac.in/fac-profiles/showprofile.php?empcode=SVmdS&depts_name=CS'
p24
aS'http://www.iitkgp.ac.in/fac-profiles/showprofile.php?empcode=STmUZ&depts_name=CS'
p25
aS'http://www.iitkgp.ac.in/fac-profiles/showprofile.php?empcode=abmYX&depts_name=CS'
p26
aS'http://www.iitkgp.ac.in/fac-profiles/showprofile.php?empcode=bZmVV&depts_name=CS'
p27
aS'http://www.iitkgp.ac.in/fac-profiles/showprofile.php?empcode=zSgdX&depts_name=CS'
p28
aS'http://www.iitkgp.ac.in/fac-profiles/showprofile.php?empcode=abmbS&depts_name=CS'
p29
aS'http://www.iitkgp.ac.in/fac-profiles/showprofile.php?empcode=aYmdX&depts_name=CS'
p30
aS'http://www.iitkgp.ac.in/fac-profiles/showprofile.php?empcode=ZbmUU&depts_name=CS'
p31
aS'http://www.iitkgp.ac.in/fac-profiles/showprofile.php?empcode=aZmWS&depts_name=CS'
p32
aS'http://www.iitkgp.ac.in/fac-profiles/showprofile.php?empcode=ZZmXZ&depts_name=CS'
p33
aS'http://www.iitkgp.ac.in/fac-profiles/showprofile.php?empcode=ZVmdV&depts_name=CR'
p34
aS'http://www.iitkgp.ac.in/fac-profiles/showprofile.php?empcode=bXmWS&depts_name=CR'
p35
aS'http://www.iitkgp.ac.in/fac-profiles/showprofile.php?empcode=ZVmdV&depts_name=CR'
p36
aS'http://www.iitkgp.ac.in/fac-profiles/showprofile.php?empcode=bXmVQ&depts_name=CR'
p37
aS'http://www.iitkgp.ac.in/fac-profiles/showprofile.php?empcode=bXmUZ&depts_name=CR'
p38
aS'http://www.iitkgp.ac.in/fac-profiles/showprofile.php?empcode=bVmaQ&depts_name=CR'
p39
aS'http://www.iitkgp.ac.in/fac-profiles/showprofile.php?empcode=ZTmdU&depts_name=CR'
p40
aS'http://www.iitkgp.ac.in/fac-profiles/showprofile.php?empcode=bTmUY&depts_name=CR'
p41
aS'http://www.iitkgp.ac.in/fac-profiles/showprofile.php?empcode=ZVmVQ&depts_name=EE'
p42
aS'http://www.iitkgp.ac.in/fac-profiles/showprofile.php?empcode=bamYV&depts_name=EE'
p43
aS'http://www.iitkgp.ac.in/fac-profiles/showprofile.php?empcode=ZWmUX&depts_name=EE'
p44
aS'http://www.iitkgp.ac.in/fac-profiles/showprofile.php?empcode=STmUS&depts_name=EE'
p45
aS'http://www.iitkgp.ac.in/fac-profiles/showprofile.php?empcode=ZVmWV&depts_name=EE'
p46
aS'http://www.iitkgp.ac.in/fac-profiles/showprofile.php?empcode=bZmWW&depts_name=EE'
p47
aS'http://www.iitkgp.ac.in/fac-profiles/showprofile.php?empcode=bTmWT&depts_name=EE'
p48
aS'http://www.iitkgp.ac.in/fac-profiles/showprofile.php?empcode=bZmVS&depts_name=EE'
p49
aS'http://www.iitkgp.ac.in/fac-profiles/showprofile.php?empcode=bVmaR&depts_name=EE'
p50
aS'http://www.iitkgp.ac.in/fac-profiles/showprofile.php?empcode=2bfcS&depts_name=EE'
p51
aS'http://www.iitkgp.ac.in/fac-profiles/showprofile.php?empcode=aYmVZ&depts_name=EE'
p52
aS'http://www.iitkgp.ac.in/fac-profiles/showprofile.php?empcode=2bgZT&depts_name=EE'
p53
aS'http://www.iitkgp.ac.in/fac-profiles/showprofile.php?empcode=YYmUQ&depts_name=EE'
p54
aS'http://www.iitkgp.ac.in/fac-profiles/showprofile.php?empcode=bZmVU&depts_name=EE'
p55
aS'http://www.iitkgp.ac.in/fac-profiles/showprofile.php?empcode=aUmWZ&depts_name=EE'
p56
aS'http://www.iitkgp.ac.in/fac-profiles/showprofile.php?empcode=SVmVS&depts_name=EE'
p57
aS'http://www.iitkgp.ac.in/fac-profiles/showprofile.php?empcode=SWmUR&depts_name=EE'
p58
aS'http://www.iitkgp.ac.in/fac-profiles/showprofile.php?empcode=SUmWR&depts_name=EE'
p59
aS'http://www.iitkgp.ac.in/fac-profiles/showprofile.php?empcode=aVmUV&depts_name=EE'
p60
aS'http://www.iitkgp.ac.in/fac-profiles/showprofile.php?empcode=aSmZW&depts_name=EE'
p61
aS'http://www.iitkgp.ac.in/fac-profiles/showprofile.php?empcode=SVmUS&depts_name=EE'
p62
aS'http://www.iitkgp.ac.in/fac-profiles/showprofile.php?empcode=ZbmUV&depts_name=EE'
p63
aS'http://www.iitkgp.ac.in/fac-profiles/showprofile.php?empcode=abmaR&depts_name=EE'
p64
aS'http://www.iitkgp.ac.in/fac-profiles/showprofile.php?empcode=bWmdX&depts_name=EE'
p65
aS'http://www.iitkgp.ac.in/fac-profiles/showprofile.php?empcode=abddT&depts_name=EE'
p66
aS'http://www.iitkgp.ac.in/fac-profiles/showprofile.php?empcode=zSfdT&depts_name=EE'
p67
aS'http://www.iitkgp.ac.in/fac-profiles/showprofile.php?empcode=ZYmUU&depts_name=EE'
p68
aS'http://www.iitkgp.ac.in/fac-profiles/showprofile.php?empcode=STmUQ&depts_name=EE'
p69
aS'http://www.iitkgp.ac.in/fac-profiles/showprofile.php?empcode=bVmWS&depts_name=EE'
p70
aS'http://www.iitkgp.ac.in/fac-profiles/showprofile.php?empcode=bTmWX&depts_name=EE'
p71
aS'http://www.iitkgp.ac.in/fac-profiles/showprofile.php?empcode=ZVmVV&depts_name=EE'
p72
aS'http://www.iitkgp.ac.in/fac-profiles/showprofile.php?empcode=aamaS&depts_name=EE'
p73
aS'http://www.iitkgp.ac.in/fac-profiles/showprofile.php?empcode=ZVmVQ&depts_name=EE'
p74
aS'http://www.iitkgp.ac.in/fac-profiles/showprofile.php?empcode=YXmUR&depts_name=EE'
p75
aS'http://www.iitkgp.ac.in/fac-profiles/showprofile.php?empcode=2bfcQ&depts_name=EE'
p76
aS'http://www.iitkgp.ac.in/fac-profiles/showprofile.php?empcode=ZVmUT&depts_name=EE'
p77
aS'http://www.iitkgp.ac.in/fac-profiles/showprofile.php?empcode=ZZmWT&depts_name=AR'
p78
aS'http://www.iitkgp.ac.in/fac-profiles/showprofile.php?empcode=SbmUQ&depts_name=AR'
p79
aS'http://www.iitkgp.ac.in/fac-profiles/showprofile.php?empcode=ZVmWZ&depts_name=AR'
p80
aS'http://www.iitkgp.ac.in/fac-profiles/showprofile.php?empcode=ZYmdT&depts_name=AR'
p81
aS'http://www.iitkgp.ac.in/fac-profiles/showprofile.php?empcode=ZVmWX&depts_name=AR'
p82
aS'http://www.iitkgp.ac.in/fac-profiles/showprofile.php?empcode=SSmUW&depts_name=AR'
p83
aS'http://www.iitkgp.ac.in/fac-profiles/showprofile.php?empcode=ZbmXX&depts_name=AR'
p84
aS'http://www.iitkgp.ac.in/fac-profiles/showprofile.php?empcode=ZZmWT&depts_name=AR'
p85
aS'http://www.iitkgp.ac.in/fac-profiles/showprofile.php?empcode=2bgbQ&depts_name=AR'
p86
aS'http://www.iitkgp.ac.in/fac-profiles/showprofile.php?empcode=SbmdT&depts_name=AR'
p87
aS'http://www.iitkgp.ac.in/fac-profiles/showprofile.php?empcode=bamdT&depts_name=AR'
p88
aS'http://www.iitkgp.ac.in/fac-profiles/showprofile.php?empcode=2bfZQ&depts_name=AR'
p89
aS'http://www.iitkgp.ac.in/fac-profiles/showprofile.php?empcode=SUmVU&depts_name=AR'
p90
aS'http://www.iitkgp.ac.in/fac-profiles/showprofile.php?empcode=aZmdX&depts_name=AR'
p91
aS'http://www.iitkgp.ac.in/fac-profiles/showprofile.php?empcode=bVmaS&depts_name=AR'
p92
aS'http://www.iitkgp.ac.in/fac-profiles/showprofile.php?empcode=bZmWT&depts_name=AR'
p93
aS'http://www.iitkgp.ac.in/fac-profiles/showprofile.php?empcode=bYmUR&depts_name=AR'
p94
aS'http://www.iitkgp.ac.in/fac-profiles/showprofile.php?empcode=aZmWU&depts_name=AR'
p95
aS'http://www.iitkgp.ac.in/fac-profiles/showprofile.php?empcode=ZYmdW&depts_name=AR'
p96
aS'http://www.iitkgp.ac.in/fac-profiles/showprofile.php?empcode=aWmUU&depts_name=BT'
p97
aS'http://www.iitkgp.ac.in/fac-profiles/showprofile.php?empcode=bamXS&depts_name=BT'
p98
aS'http://www.iitkgp.ac.in/fac-profiles/showprofile.php?empcode=aZmXU&depts_name=BT'
p99
aS'http://www.iitkgp.ac.in/fac-profiles/showprofile.php?empcode=ZZmVY&depts_name=BT'
p100
aS'http://www.iitkgp.ac.in/fac-profiles/showprofile.php?empcode=aUmUR&depts_name=BT'
p101
aS'http://www.iitkgp.ac.in/fac-profiles/showprofile.php?empcode=SUmYZ&depts_name=BT'
p102
aS'http://www.iitkgp.ac.in/fac-profiles/showprofile.php?empcode=bVmaW&depts_name=BT'
p103
aS'http://www.iitkgp.ac.in/fac-profiles/showprofile.php?empcode=aWmUY&depts_name=BT'
p104
aS'http://www.iitkgp.ac.in/fac-profiles/showprofile.php?empcode=bbddR&depts_name=BT'
p105
aS'http://www.iitkgp.ac.in/fac-profiles/showprofile.php?empcode=zSeUS&depts_name=BT'
p106
aS'http://www.iitkgp.ac.in/fac-profiles/showprofile.php?empcode=bamdQ&depts_name=BT'
p107
aS'http://www.iitkgp.ac.in/fac-profiles/showprofile.php?empcode=aWmUU&depts_name=BT'
p108
aS'http://www.iitkgp.ac.in/fac-profiles/showprofile.php?empcode=bVmZW&depts_name=BT'
p109
aS'http://www.iitkgp.ac.in/fac-profiles/showprofile.php?empcode=bVmaZ&depts_name=BT'
p110
aS'http://www.iitkgp.ac.in/fac-profiles/showprofile.php?empcode=bVmbT&depts_name=AE'
p111
aS'http://www.iitkgp.ac.in/fac-profiles/showprofile.php?empcode=zSedX&depts_name=AE'
p112
aS'http://www.iitkgp.ac.in/fac-profiles/showprofile.php?empcode=bVmWV&depts_name=AE'
p113
aS'http://www.iitkgp.ac.in/fac-profiles/showprofile.php?empcode=SUmVS&depts_name=AE'
p114
aS'http://www.iitkgp.ac.in/fac-profiles/showprofile.php?empcode=2bgcT&depts_name=AE'
p115
aS'http://www.iitkgp.ac.in/fac-profiles/showprofile.php?empcode=SUmVV&depts_name=AE'
p116
aS'http://www.iitkgp.ac.in/fac-profiles/showprofile.php?empcode=SUmUQ&depts_name=AE'
p117
aS'http://www.iitkgp.ac.in/fac-profiles/showprofile.php?empcode=2bfWU&depts_name=AE'
p118
aS'http://www.iitkgp.ac.in/fac-profiles/showprofile.php?empcode=ZYmdS&depts_name=AE'
p119
aS'http://www.iitkgp.ac.in/fac-profiles/showprofile.php?empcode=bVmaU&depts_name=AE'
p120
aS'http://www.iitkgp.ac.in/fac-profiles/showprofile.php?empcode=SUmUV&depts_name=AE'
p121
aS'http://www.iitkgp.ac.in/fac-profiles/showprofile.php?empcode=bVmYU&depts_name=AE'
p122
aS'http://www.iitkgp.ac.in/fac-profiles/showprofile.php?empcode=bYmUQ&depts_name=AE'
p123
aS'http://www.iitkgp.ac.in/fac-profiles/showprofile.php?empcode=SVmVR&depts_name=AE'
p124
aS'http://www.iitkgp.ac.in/fac-profiles/showprofile.php?empcode=bVmbT&depts_name=AE'
p125
aS'http://www.iitkgp.ac.in/fac-profiles/showprofile.php?empcode=ZVmVX&depts_name=AE'
p126
aS'http://www.iitkgp.ac.in/fac-profiles/showprofile.php?empcode=bVmYW&depts_name=AE'
p127
aS'http://www.iitkgp.ac.in/fac-profiles/showprofile.php?empcode=aZmdS&depts_name=AE'
p128
aS'http://www.iitkgp.ac.in/fac-profiles/showprofile.php?empcode=SVmdW&depts_name=AE'
p129
aS'http://www.iitkgp.ac.in/fac-profiles/showprofile.php?empcode=bSmUT&depts_name=CM'
p130
aS'http://www.iitkgp.ac.in/fac-profiles/showprofile.php?empcode=SbmUR&depts_name=CM'
p131
aS'http://www.iitkgp.ac.in/fac-profiles/showprofile.php?empcode=bSmUV&depts_name=CM'
p132
aS'http://www.iitkgp.ac.in/fac-profiles/showprofile.php?empcode=aSmVZ&depts_name=CM'
p133
aS'http://www.iitkgp.ac.in/fac-profiles/showprofile.php?empcode=abmaT&depts_name=CM'
p134
aS'http://www.iitkgp.ac.in/fac-profiles/showprofile.php?empcode=bTmUS&depts_name=CM'
p135
aS'http://www.iitkgp.ac.in/fac-profiles/showprofile.php?empcode=ZZmXY&depts_name=CM'
p136
aS'http://www.iitkgp.ac.in/fac-profiles/showprofile.php?empcode=SUmYQ&depts_name=CM'
p137
aS'http://www.iitkgp.ac.in/fac-profiles/showprofile.php?empcode=aWmUV&depts_name=CM'
p138
aS'http://www.iitkgp.ac.in/fac-profiles/showprofile.php?empcode=aZmWY&depts_name=CM'
p139
aS'http://www.iitkgp.ac.in/fac-profiles/showprofile.php?empcode=bZmXS&depts_name=CM'
p140
aS'http://www.iitkgp.ac.in/fac-profiles/showprofile.php?empcode=bXmYT&depts_name=CM'
p141
aS'http://www.iitkgp.ac.in/fac-profiles/showprofile.php?empcode=SWmdY&depts_name=CM'
p142
aS'http://www.iitkgp.ac.in/fac-profiles/showprofile.php?empcode=bbmXS&depts_name=CM'
p143
aS'http://www.iitkgp.ac.in/fac-profiles/showprofile.php?empcode=SUmXY&depts_name=CM'
p144
aS'http://www.iitkgp.ac.in/fac-profiles/showprofile.php?empcode=ZYmUQ&depts_name=CM'
p145
aS'http://www.iitkgp.ac.in/fac-profiles/showprofile.php?empcode=SWmdX&depts_name=CM'
p146
aS'http://www.iitkgp.ac.in/fac-profiles/showprofile.php?empcode=bYmdV&depts_name=CM'
p147
aS'http://www.iitkgp.ac.in/fac-profiles/showprofile.php?empcode=STmdX&depts_name=CM'
p148
aS'http://www.iitkgp.ac.in/fac-profiles/showprofile.php?empcode=ZWmZT&depts_name=CM'
p149
aS'http://www.iitkgp.ac.in/fac-profiles/showprofile.php?empcode=bXmdW&depts_name=CM'
p150
aS'http://www.iitkgp.ac.in/fac-profiles/showprofile.php?empcode=ZVmWW&depts_name=CM'
p151
aS'http://www.iitkgp.ac.in/fac-profiles/showprofile.php?empcode=bSmUT&depts_name=CM'
p152
aS'http://www.iitkgp.ac.in/fac-profiles/showprofile.php?empcode=SSmUY&depts_name=CM'
p153
aS'http://www.iitkgp.ac.in/fac-profiles/showprofile.php?empcode=bTmVX&depts_name=CM'
p154
aS'http://www.iitkgp.ac.in/fac-profiles/showprofile.php?empcode=bZmXR&depts_name=CM'
p155
aS'http://www.iitkgp.ac.in/fac-profiles/showprofile.php?empcode=abmaZ&depts_name=CM'
p156
aS'http://www.iitkgp.ac.in/fac-profiles/showprofile.php?empcode=YYmdS&depts_name=CM'
p157
aS'http://www.iitkgp.ac.in/fac-profiles/showprofile.php?empcode=SUmXZ&depts_name=CM'
p158
aS'http://www.iitkgp.ac.in/fac-profiles/showprofile.php?empcode=aZmXR&depts_name=CM'
p159
aS'http://www.iitkgp.ac.in/fac-profiles/showprofile.php?empcode=zSedS&depts_name=CM'
p160
aS'http://www.iitkgp.ac.in/fac-profiles/showprofile.php?empcode=bYmXX&depts_name=CM'
p161
aS'http://www.iitkgp.ac.in/fac-profiles/showprofile.php?empcode=ZWmWV&depts_name=CM'
p162
aS'http://www.iitkgp.ac.in/fac-profiles/showprofile.php?empcode=aXmVS&depts_name=CM'
p163
aS'http://www.iitkgp.ac.in/fac-profiles/showprofile.php?empcode=aYmVR&depts_name=CH'
p164
aS'http://www.iitkgp.ac.in/fac-profiles/showprofile.php?empcode=SUmdV&depts_name=CH'
p165
aS'http://www.iitkgp.ac.in/fac-profiles/showprofile.php?empcode=aSmUZ&depts_name=CH'
p166
aS'http://www.iitkgp.ac.in/fac-profiles/showprofile.php?empcode=SSmdS&depts_name=CH'
p167
aS'http://www.iitkgp.ac.in/fac-profiles/showprofile.php?empcode=bWmdY&depts_name=CH'
p168
aS'http://www.iitkgp.ac.in/fac-profiles/showprofile.php?empcode=bVmaT&depts_name=CH'
p169
aS'http://www.iitkgp.ac.in/fac-profiles/showprofile.php?empcode=bSmdS&depts_name=CH'
p170
aS'http://www.iitkgp.ac.in/fac-profiles/showprofile.php?empcode=aVmWX&depts_name=CH'
p171
aS'http://www.iitkgp.ac.in/fac-profiles/showprofile.php?empcode=aYmVR&depts_name=CH'
p172
aS'http://www.iitkgp.ac.in/fac-profiles/showprofile.php?empcode=bamXV&depts_name=CH'
p173
aS'http://www.iitkgp.ac.in/fac-profiles/showprofile.php?empcode=SVmdX&depts_name=CH'
p174
aS'http://www.iitkgp.ac.in/fac-profiles/showprofile.php?empcode=bYmUY&depts_name=CH'
p175
aS'http://www.iitkgp.ac.in/fac-profiles/showprofile.php?empcode=bYmdQ&depts_name=CH'
p176
aS'http://www.iitkgp.ac.in/fac-profiles/showprofile.php?empcode=ZWmdR&depts_name=CH'
p177
aS'http://www.iitkgp.ac.in/fac-profiles/showprofile.php?empcode=bVmXT&depts_name=CH'
p178
aS'http://www.iitkgp.ac.in/fac-profiles/showprofile.php?empcode=bamXX&depts_name=CH'
p179
aS'http://www.iitkgp.ac.in/fac-profiles/showprofile.php?empcode=bVmbS&depts_name=CH'
p180
aS'http://www.iitkgp.ac.in/fac-profiles/showprofile.php?empcode=bXmUS&depts_name=CH'
p181
aS'http://www.iitkgp.ac.in/fac-profiles/showprofile.php?empcode=STmUT&depts_name=CH'
p182
aS'http://www.iitkgp.ac.in/fac-profiles/showprofile.php?empcode=aVmdT&depts_name=CH'
p183
aS'http://www.iitkgp.ac.in/fac-profiles/showprofile.php?empcode=ZZmWS&depts_name=CH'
p184
aS'http://www.iitkgp.ac.in/fac-profiles/showprofile.php?empcode=aSmdX&depts_name=CH'
p185
aS'http://www.iitkgp.ac.in/fac-profiles/showprofile.php?empcode=bamYX&depts_name=CH'
p186
aS'http://www.iitkgp.ac.in/fac-profiles/showprofile.php?empcode=bUdUZ&depts_name=CH'
p187
aS'http://www.iitkgp.ac.in/fac-profiles/showprofile.php?empcode=aZmWR&depts_name=CE'
p188
aS'http://www.iitkgp.ac.in/fac-profiles/showprofile.php?empcode=aVmdQ&depts_name=CE'
p189
aS'http://www.iitkgp.ac.in/fac-profiles/showprofile.php?empcode=SSmVZ&depts_name=CE'
p190
aS'http://www.iitkgp.ac.in/fac-profiles/showprofile.php?empcode=aZmXW&depts_name=CE'
p191
aS'http://www.iitkgp.ac.in/fac-profiles/showprofile.php?empcode=bXmdT&depts_name=CE'
p192
aS'http://www.iitkgp.ac.in/fac-profiles/showprofile.php?empcode=SWmVV&depts_name=CE'
p193
aS'http://www.iitkgp.ac.in/fac-profiles/showprofile.php?empcode=ZYmXQ&depts_name=CE'
p194
aS'http://www.iitkgp.ac.in/fac-profiles/showprofile.php?empcode=SUmVW&depts_name=CE'
p195
aS'http://www.iitkgp.ac.in/fac-profiles/showprofile.php?empcode=2bfWW&depts_name=CE'
p196
aS'http://www.iitkgp.ac.in/fac-profiles/showprofile.php?empcode=bYmWX&depts_name=CE'
p197
aS'http://www.iitkgp.ac.in/fac-profiles/showprofile.php?empcode=STmdW&depts_name=CE'
p198
aS'http://www.iitkgp.ac.in/fac-profiles/showprofile.php?empcode=bZmWQ&depts_name=CE'
p199
aS'http://www.iitkgp.ac.in/fac-profiles/showprofile.php?empcode=bZmXQ&depts_name=CE'
p200
aS'http://www.iitkgp.ac.in/fac-profiles/showprofile.php?empcode=aVmXR&depts_name=CE'
p201
aS'http://www.iitkgp.ac.in/fac-profiles/showprofile.php?empcode=aZmWR&depts_name=CE'
p202
aS'http://www.iitkgp.ac.in/fac-profiles/showprofile.php?empcode=aUmUX&depts_name=CE'
p203
aS'http://www.iitkgp.ac.in/fac-profiles/showprofile.php?empcode=SSmdR&depts_name=CE'
p204
aS'http://www.iitkgp.ac.in/fac-profiles/showprofile.php?empcode=SWmUZ&depts_name=CE'
p205
aS'http://www.iitkgp.ac.in/fac-profiles/showprofile.php?empcode=bVmdS&depts_name=CE'
p206
aS'http://www.iitkgp.ac.in/fac-profiles/showprofile.php?empcode=bUddZ&depts_name=CE'
p207
aS'http://www.iitkgp.ac.in/fac-profiles/showprofile.php?empcode=bTmUV&depts_name=CE'
p208
aS'http://www.iitkgp.ac.in/fac-profiles/showprofile.php?empcode=bWmVZ&depts_name=CE'
p209
aS'http://www.iitkgp.ac.in/fac-profiles/showprofile.php?empcode=bSmUS&depts_name=CE'
p210
aS'http://www.iitkgp.ac.in/fac-profiles/showprofile.php?empcode=bYmYQ&depts_name=CE'
p211
aS'http://www.iitkgp.ac.in/fac-profiles/showprofile.php?empcode=bZmWY&depts_name=CE'
p212
aS'http://www.iitkgp.ac.in/fac-profiles/showprofile.php?empcode=bamYS&depts_name=CE'
p213
aS'http://www.iitkgp.ac.in/fac-profiles/showprofile.php?empcode=bamYR&depts_name=CE'
p214
aS'http://www.iitkgp.ac.in/fac-profiles/showprofile.php?empcode=bbmWT&depts_name=CE'
p215
aS'http://www.iitkgp.ac.in/fac-profiles/showprofile.php?empcode=uVmWV&depts_name=CE'
p216
aS'http://www.iitkgp.ac.in/fac-profiles/showprofile.php?empcode=aXmWZ&depts_name=CE'
p217
aS'http://www.iitkgp.ac.in/fac-profiles/showprofile.php?empcode=SUmUR&depts_name=CE'
p218
aS'http://www.iitkgp.ac.in/fac-profiles/showprofile.php?empcode=aVmWU&depts_name=CE'
p219
aS'http://www.iitkgp.ac.in/fac-profiles/showprofile.php?empcode=bWmVU&depts_name=CE'
p220
aS'http://www.iitkgp.ac.in/fac-profiles/showprofile.php?empcode=bTmWZ&depts_name=CE'
p221
aS'http://www.iitkgp.ac.in/fac-profiles/showprofile.php?empcode=aamaT&depts_name=CE'
p222
aS'http://www.iitkgp.ac.in/fac-profiles/showprofile.php?empcode=aadVZ&depts_name=CE'
p223
aS'http://www.iitkgp.ac.in/fac-profiles/showprofile.php?empcode=bamYW&depts_name=CE'
p224
aS'http://www.iitkgp.ac.in/fac-profiles/showprofile.php?empcode=bZmWR&depts_name=CE'
p225
aS'http://www.iitkgp.ac.in/fac-profiles/showprofile.php?empcode=abmaS&depts_name=AG'
p226
aS'http://www.iitkgp.ac.in/fac-profiles/showprofile.php?empcode=aUmUQ&depts_name=AG'
p227
aS'http://www.iitkgp.ac.in/fac-profiles/showprofile.php?empcode=ZSmVZ&depts_name=AG'
p228
aS'http://www.iitkgp.ac.in/fac-profiles/showprofile.php?empcode=bVmXX&depts_name=AG'
p229
aS'http://www.iitkgp.ac.in/fac-profiles/showprofile.php?empcode=aadWV&depts_name=AG'
p230
aS'http://www.iitkgp.ac.in/fac-profiles/showprofile.php?empcode=bTmUQ&depts_name=AG'
p231
aS'http://www.iitkgp.ac.in/fac-profiles/showprofile.php?empcode=ZVmWT&depts_name=AG'
p232
aS'http://www.iitkgp.ac.in/fac-profiles/showprofile.php?empcode=ZWmUU&depts_name=AG'
p233
aS'http://www.iitkgp.ac.in/fac-profiles/showprofile.php?empcode=aSmUQ&depts_name=AG'
p234
aS'http://www.iitkgp.ac.in/fac-profiles/showprofile.php?empcode=zSgdS&depts_name=AG'
p235
aS'http://www.iitkgp.ac.in/fac-profiles/showprofile.php?empcode=ZamWQ&depts_name=AG'
p236
aS'http://www.iitkgp.ac.in/fac-profiles/showprofile.php?empcode=bVmUV&depts_name=AG'
p237
aS'http://www.iitkgp.ac.in/fac-profiles/showprofile.php?empcode=aadWU&depts_name=AG'
p238
aS'http://www.iitkgp.ac.in/fac-profiles/showprofile.php?empcode=2bfcV&depts_name=AG'
p239
aS'http://www.iitkgp.ac.in/fac-profiles/showprofile.php?empcode=SUmXX&depts_name=AG'
p240
aS'http://www.iitkgp.ac.in/fac-profiles/showprofile.php?empcode=bbmbS&depts_name=AG'
p241
aS'http://www.iitkgp.ac.in/fac-profiles/showprofile.php?empcode=bYmUV&depts_name=AG'
p242
aS'http://www.iitkgp.ac.in/fac-profiles/showprofile.php?empcode=aSmXQ&depts_name=AG'
p243
aS'http://www.iitkgp.ac.in/fac-profiles/showprofile.php?empcode=bbmcT&depts_name=AG'
p244
aS'http://www.iitkgp.ac.in/fac-profiles/showprofile.php?empcode=ZVmUY&depts_name=AG'
p245
aS'http://www.iitkgp.ac.in/fac-profiles/showprofile.php?empcode=SVmUV&depts_name=AG'
p246
aS'http://www.iitkgp.ac.in/fac-profiles/showprofile.php?empcode=ZSmYU&depts_name=AG'
p247
aS'http://www.iitkgp.ac.in/fac-profiles/showprofile.php?empcode=aSmVR&depts_name=AG'
p248
aS'http://www.iitkgp.ac.in/fac-profiles/showprofile.php?empcode=aWmUQ&depts_name=AG'
p249
aS'http://www.iitkgp.ac.in/fac-profiles/showprofile.php?empcode=aYmVT&depts_name=AG'
p250
aS'http://www.iitkgp.ac.in/fac-profiles/showprofile.php?empcode=aamWW&depts_name=AG'
p251
aS'http://www.iitkgp.ac.in/fac-profiles/showprofile.php?empcode=bVmYT&depts_name=AG'
p252
aS'http://www.iitkgp.ac.in/fac-profiles/showprofile.php?empcode=bVmUY&depts_name=AG'
p253
aS'http://www.iitkgp.ac.in/fac-profiles/showprofile.php?empcode=ZamUZ&depts_name=AG'
p254
aS'http://www.iitkgp.ac.in/fac-profiles/showprofile.php?empcode=bVmUX&depts_name=AG'
p255
aS'http://www.iitkgp.ac.in/fac-profiles/showprofile.php?empcode=bYmUU&depts_name=AG'
p256
aS'http://www.iitkgp.ac.in/fac-profiles/showprofile.php?empcode=abmaS&depts_name=AG'
p257
aS'http://www.iitkgp.ac.in/fac-profiles/showprofile.php?empcode=ZamVZ&depts_name=AG'
p258
aS'http://www.iitkgp.ac.in/fac-profiles/showprofile.php?empcode=ZVmdX&depts_name=AG'
p259
aS'http://www.iitkgp.ac.in/fac-profiles/showprofile.php?empcode=SUmYT&depts_name=AG'
p260
aS'http://www.iitkgp.ac.in/fac-profiles/showprofile.php?empcode=aSmUX&depts_name=EC'
p261
aS'http://www.iitkgp.ac.in/fac-profiles/showprofile.php?empcode=2bmcQ&depts_name=EC'
p262
aS'http://www.iitkgp.ac.in/fac-profiles/showprofile.php?empcode=SWmdR&depts_name=EC'
p263
aS'http://www.iitkgp.ac.in/fac-profiles/showprofile.php?empcode=zShdQ&depts_name=EC'
p264
aS'http://www.iitkgp.ac.in/fac-profiles/showprofile.php?empcode=bYmVQ&depts_name=EC'
p265
aS'http://www.iitkgp.ac.in/fac-profiles/showprofile.php?empcode=bbmbT&depts_name=EC'
p266
aS'http://www.iitkgp.ac.in/fac-profiles/showprofile.php?empcode=bYmYS&depts_name=EC'
p267
aS'http://www.iitkgp.ac.in/fac-profiles/showprofile.php?empcode=aSmUX&depts_name=EC'
p268
aS'http://www.iitkgp.ac.in/fac-profiles/showprofile.php?empcode=bVmbU&depts_name=EC'
p269
aS'http://www.iitkgp.ac.in/fac-profiles/showprofile.php?empcode=YYmdY&depts_name=EC'
p270
aS'http://www.iitkgp.ac.in/fac-profiles/showprofile.php?empcode=aVmWR&depts_name=EC'
p271
aS'http://www.iitkgp.ac.in/fac-profiles/showprofile.php?empcode=bVmbR&depts_name=EC'
p272
aS'http://www.iitkgp.ac.in/fac-profiles/showprofile.php?empcode=ZSmUV&depts_name=EC'
p273
aS'http://www.iitkgp.ac.in/fac-profiles/showprofile.php?empcode=bYmUZ&depts_name=EC'
p274
aS'http://www.iitkgp.ac.in/fac-profiles/showprofile.php?empcode=STmdV&depts_name=EC'
p275
aS'http://www.iitkgp.ac.in/fac-profiles/showprofile.php?empcode=aXmUX&depts_name=EC'
p276
aS'http://www.iitkgp.ac.in/fac-profiles/showprofile.php?empcode=SWmdW&depts_name=EC'
p277
aS'http://www.iitkgp.ac.in/fac-profiles/showprofile.php?empcode=bWmVS&depts_name=EC'
p278
aS'http://www.iitkgp.ac.in/fac-profiles/showprofile.php?empcode=2bgcX&depts_name=EC'
p279
aS'http://www.iitkgp.ac.in/fac-profiles/showprofile.php?empcode=SSmUS&depts_name=EC'
p280
aS'http://www.iitkgp.ac.in/fac-profiles/showprofile.php?empcode=2beXW&depts_name=EC'
p281
aS'http://www.iitkgp.ac.in/fac-profiles/showprofile.php?empcode=bTmWQ&depts_name=EC'
p282
aS'http://www.iitkgp.ac.in/fac-profiles/showprofile.php?empcode=SUmdS&depts_name=EC'
p283
aS'http://www.iitkgp.ac.in/fac-profiles/showprofile.php?empcode=bVmYQ&depts_name=EC'
p284
aS'http://www.iitkgp.ac.in/fac-profiles/showprofile.php?empcode=SUmdY&depts_name=EC'
p285
aS'http://www.iitkgp.ac.in/fac-profiles/showprofile.php?empcode=bWmVR&depts_name=EC'
p286
aS'http://www.iitkgp.ac.in/fac-profiles/showprofile.php?empcode=2bgcU&depts_name=EC'
p287
aS'http://www.iitkgp.ac.in/fac-profiles/showprofile.php?empcode=ZWmVS&depts_name=EC'
p288
aS'http://www.iitkgp.ac.in/fac-profiles/showprofile.php?empcode=ZVmVS&depts_name=EC'
p289
aS'http://www.iitkgp.ac.in/fac-profiles/showprofile.php?empcode=ZbmdY&depts_name=EC'
p290
aS'http://www.iitkgp.ac.in/fac-profiles/showprofile.php?empcode=bTmUX&depts_name=EC'
p291
aS'http://www.iitkgp.ac.in/fac-profiles/showprofile.php?empcode=bXmXX&depts_name=EC'
p292
aS'http://www.iitkgp.ac.in/fac-profiles/showprofile.php?empcode=bTmUW&depts_name=EC'
p293
aS'http://www.iitkgp.ac.in/fac-profiles/showprofile.php?empcode=ZVmWR&depts_name=EC'
p294
aS'http://www.iitkgp.ac.in/fac-profiles/showprofile.php?empcode=SWmUW&depts_name=EC'
p295
aS'http://www.iitkgp.ac.in/fac-profiles/showprofile.php?empcode=2bgYY&depts_name=EC'
p296
aS'http://www.iitkgp.ac.in/fac-profiles/showprofile.php?empcode=bZmWV&depts_name=EC'
p297
aS'http://www.iitkgp.ac.in/fac-profiles/showprofile.php?empcode=abmaV&depts_name=MG'
p298
aS'http://www.iitkgp.ac.in/fac-profiles/showprofile.php?empcode=SUmXU&depts_name=MG'
p299
aS'http://www.iitkgp.ac.in/fac-profiles/showprofile.php?empcode=bYmVR&depts_name=MG'
p300
aS'http://www.iitkgp.ac.in/fac-profiles/showprofile.php?empcode=SVmdQ&depts_name=MG'
p301
aS'http://www.iitkgp.ac.in/fac-profiles/showprofile.php?empcode=ZZmVS&depts_name=MG'
p302
aS'http://www.iitkgp.ac.in/fac-profiles/showprofile.php?empcode=bbmbY&depts_name=MG'
p303
aS'http://www.iitkgp.ac.in/fac-profiles/showprofile.php?empcode=abmaU&depts_name=MG'
p304
aS'http://www.iitkgp.ac.in/fac-profiles/showprofile.php?empcode=ZYmVS&depts_name=MG'
p305
aS'http://www.iitkgp.ac.in/fac-profiles/showprofile.php?empcode=aWmUT&depts_name=MG'
p306
aS'http://www.iitkgp.ac.in/fac-profiles/showprofile.php?empcode=SVmdT&depts_name=MG'
p307
aS'http://www.iitkgp.ac.in/fac-profiles/showprofile.php?empcode=SUmXV&depts_name=MG'
p308
aS'http://www.iitkgp.ac.in/fac-profiles/showprofile.php?empcode=aadVU&depts_name=MG'
p309
aS'http://www.iitkgp.ac.in/fac-profiles/showprofile.php?empcode=ZZmVR&depts_name=MG'
p310
aS'http://www.iitkgp.ac.in/fac-profiles/showprofile.php?empcode=bUmdV&depts_name=MG'
p311
aS'http://www.iitkgp.ac.in/fac-profiles/showprofile.php?empcode=SbmUX&depts_name=MG'
p312
aS'http://www.iitkgp.ac.in/fac-profiles/showprofile.php?empcode=ZZmXS&depts_name=MG'
p313
aS'http://www.iitkgp.ac.in/fac-profiles/showprofile.php?empcode=aWmUS&depts_name=MG'
p314
aS'http://www.iitkgp.ac.in/fac-profiles/showprofile.php?empcode=SbmUT&depts_name=MG'
p315
aS'http://www.iitkgp.ac.in/fac-profiles/showprofile.php?empcode=bVmVY&depts_name=MG'
p316
aS'http://www.iitkgp.ac.in/fac-profiles/showprofile.php?empcode=bTmUT&depts_name=MG'
p317
aS'http://www.iitkgp.ac.in/fac-profiles/showprofile.php?empcode=abmaV&depts_name=MG'
p318
aS'http://www.iitkgp.ac.in/fac-profiles/showprofile.php?empcode=aYmVV&depts_name=MG'
p319
aS'http://www.iitkgp.ac.in/fac-profiles/showprofile.php?empcode=aamYS&depts_name=MG'
p320
aS'http://www.iitkgp.ac.in/fac-profiles/showprofile.php?empcode=SUmdR&depts_name=MG'
p321
aS'http://www.iitkgp.ac.in/fac-profiles/showprofile.php?empcode=SUmdQ&depts_name=MG'
p322
aS'http://www.iitkgp.ac.in/fac-profiles/showprofile.php?empcode=aXmdT&depts_name=MG'
p323
aS'http://www.iitkgp.ac.in/fac-profiles/showprofile.php?empcode=bamXW&depts_name=MG'
p324
aS'http://www.iitkgp.ac.in/fac-profiles/showprofile.php?empcode=SVmdU&depts_name=MG'
p325
aS'http://www.iitkgp.ac.in/fac-profiles/showprofile.php?empcode=ZVmVR&depts_name=HS'
p326
aS'http://www.iitkgp.ac.in/fac-profiles/showprofile.php?empcode=2bfYZ&depts_name=HS'
p327
aS'http://www.iitkgp.ac.in/fac-profiles/showprofile.php?empcode=bYmVT&depts_name=HS'
p328
aS'http://www.iitkgp.ac.in/fac-profiles/showprofile.php?empcode=aamWU&depts_name=HS'
p329
aS'http://www.iitkgp.ac.in/fac-profiles/showprofile.php?empcode=bYmYT&depts_name=HS'
p330
aS'http://www.iitkgp.ac.in/fac-profiles/showprofile.php?empcode=zSgdT&depts_name=HS'
p331
aS'http://www.iitkgp.ac.in/fac-profiles/showprofile.php?empcode=aZmdV&depts_name=HS'
p332
aS'http://www.iitkgp.ac.in/fac-profiles/showprofile.php?empcode=SVmdY&depts_name=HS'
p333
aS'http://www.iitkgp.ac.in/fac-profiles/showprofile.php?empcode=bUmdU&depts_name=HS'
p334
aS'http://www.iitkgp.ac.in/fac-profiles/showprofile.php?empcode=ZVmVR&depts_name=HS'
p335
aS'http://www.iitkgp.ac.in/fac-profiles/showprofile.php?empcode=bVmVR&depts_name=HS'
p336
aS'http://www.iitkgp.ac.in/fac-profiles/showprofile.php?empcode=SUmWX&depts_name=HS'
p337
aS'http://www.iitkgp.ac.in/fac-profiles/showprofile.php?empcode=SUmXQ&depts_name=HS'
p338
aS'http://www.iitkgp.ac.in/fac-profiles/showprofile.php?empcode=bYmVW&depts_name=HS'
p339
aS'http://www.iitkgp.ac.in/fac-profiles/showprofile.php?empcode=bYmXT&depts_name=HS'
p340
aS'http://www.iitkgp.ac.in/fac-profiles/showprofile.php?empcode=bYmXZ&depts_name=HS'
p341
aS'http://www.iitkgp.ac.in/fac-profiles/showprofile.php?empcode=bbmbW&depts_name=HS'
p342
aS'http://www.iitkgp.ac.in/fac-profiles/showprofile.php?empcode=aYmVX&depts_name=HS'
p343
aS'http://www.iitkgp.ac.in/fac-profiles/showprofile.php?empcode=bYmYY&depts_name=HS'
p344
aS'http://www.iitkgp.ac.in/fac-profiles/showprofile.php?empcode=ZZmXW&depts_name=HS'
p345
aS'http://www.iitkgp.ac.in/fac-profiles/showprofile.php?empcode=SUmXR&depts_name=HS'
p346
aS'http://www.iitkgp.ac.in/fac-profiles/showprofile.php?empcode=bUddW&depts_name=HS'
p347
aS'http://www.iitkgp.ac.in/fac-profiles/showprofile.php?empcode=aYmdU&depts_name=HS'
p348
aS'http://www.iitkgp.ac.in/fac-profiles/showprofile.php?empcode=aVmXS&depts_name=HS'
p349
aS'http://www.iitkgp.ac.in/fac-profiles/showprofile.php?empcode=SWmUQ&depts_name=HS'
p350
aS'http://www.iitkgp.ac.in/fac-profiles/showprofile.php?empcode=aSmdV&depts_name=GS'
p351
aS'http://www.iitkgp.ac.in/fac-profiles/showprofile.php?empcode=aSmdV&depts_name=GS'
p352
aS'http://www.iitkgp.ac.in/fac-profiles/showprofile.php?empcode=SUmdU&depts_name=GS'
p353
aS'http://www.iitkgp.ac.in/fac-profiles/showprofile.php?empcode=bZmWZ&depts_name=GS'
p354
aS'http://www.iitkgp.ac.in/fac-profiles/showprofile.php?empcode=STmUR&depts_name=GS'
p355
aS'http://www.iitkgp.ac.in/fac-profiles/showprofile.php?empcode=SUmUW&depts_name=GS'
p356
aS'http://www.iitkgp.ac.in/fac-profiles/showprofile.php?empcode=aVmUY&depts_name=IT'
p357
aS'http://www.iitkgp.ac.in/fac-profiles/showprofile.php?empcode=aamUU&depts_name=IT'
p358
aS'http://www.iitkgp.ac.in/fac-profiles/showprofile.php?empcode=aadWW&depts_name=IT'
p359
aS'http://www.iitkgp.ac.in/fac-profiles/showprofile.php?empcode=bYmZU&depts_name=IT'
p360
aS'http://www.iitkgp.ac.in/fac-profiles/showprofile.php?empcode=STmUU&depts_name=IT'
p361
aS'http://www.iitkgp.ac.in/fac-profiles/showprofile.php?empcode=bYmWU&depts_name=IT'
p362
aS'http://www.iitkgp.ac.in/fac-profiles/showprofile.php?empcode=bVmVT&depts_name=IT'
p363
aS'http://www.iitkgp.ac.in/fac-profiles/showprofile.php?empcode=bTmVS&depts_name=IT'
p364
aS'http://www.iitkgp.ac.in/fac-profiles/showprofile.php?empcode=bXmdQ&depts_name=MS'
p365
aS'http://www.iitkgp.ac.in/fac-profiles/showprofile.php?empcode=ZSmZQ&depts_name=MS'
p366
aS'http://www.iitkgp.ac.in/fac-profiles/showprofile.php?empcode=bXmdQ&depts_name=MS'
p367
aS'http://www.iitkgp.ac.in/fac-profiles/showprofile.php?empcode=bWmUV&depts_name=MS'
p368
aS'http://www.iitkgp.ac.in/fac-profiles/showprofile.php?empcode=bXmdS&depts_name=MS'
p369
aS'http://www.iitkgp.ac.in/fac-profiles/showprofile.php?empcode=ZVmdY&depts_name=MS'
p370
aS'http://www.iitkgp.ac.in/fac-profiles/showprofile.php?empcode=bSmdQ&depts_name=MS'
p371
aS'http://www.iitkgp.ac.in/fac-profiles/showprofile.php?empcode=bYmWQ&depts_name=MS'
p372
aS'http://www.iitkgp.ac.in/fac-profiles/showprofile.php?empcode=SbmUW&depts_name=MS'
p373
aS'http://www.iitkgp.ac.in/fac-profiles/showprofile.php?empcode=aXmVX&depts_name=MS'
p374
aS'http://www.iitkgp.ac.in/fac-profiles/showprofile.php?empcode=bYmXW&depts_name=IM'
p375
aS'http://www.iitkgp.ac.in/fac-profiles/showprofile.php?empcode=bWmdT&depts_name=IM'
p376
aS'http://www.iitkgp.ac.in/fac-profiles/showprofile.php?empcode=SWmVU&depts_name=IM'
p377
aS'http://www.iitkgp.ac.in/fac-profiles/showprofile.php?empcode=2bfYQ&depts_name=IM'
p378
aS'http://www.iitkgp.ac.in/fac-profiles/showprofile.php?empcode=SUmWZ&depts_name=IM'
p379
aS'http://www.iitkgp.ac.in/fac-profiles/showprofile.php?empcode=abmaW&depts_name=IM'
p380
aS'http://www.iitkgp.ac.in/fac-profiles/showprofile.php?empcode=bUmcY&depts_name=IM'
p381
aS'http://www.iitkgp.ac.in/fac-profiles/showprofile.php?empcode=2beXX&depts_name=IM'
p382
aS'http://www.iitkgp.ac.in/fac-profiles/showprofile.php?empcode=ZamdW&depts_name=IM'
p383
aS'http://www.iitkgp.ac.in/fac-profiles/showprofile.php?empcode=bVmaY&depts_name=IM'
p384
aS'http://www.iitkgp.ac.in/fac-profiles/showprofile.php?empcode=SbmdV&depts_name=IM'
p385
aS'http://www.iitkgp.ac.in/fac-profiles/showprofile.php?empcode=bYmXW&depts_name=IM'
p386
aS'http://www.iitkgp.ac.in/fac-profiles/showprofile.php?empcode=ZWmdU&depts_name=MM'
p387
aS'http://www.iitkgp.ac.in/fac-profiles/showprofile.php?empcode=SWmdT&depts_name=MM'
p388
aS'http://www.iitkgp.ac.in/fac-profiles/showprofile.php?empcode=SUmUX&depts_name=MM'
p389
aS'http://www.iitkgp.ac.in/fac-profiles/showprofile.php?empcode=aUmdU&depts_name=MM'
p390
aS'http://www.iitkgp.ac.in/fac-profiles/showprofile.php?empcode=SUmVY&depts_name=MM'
p391
aS'http://www.iitkgp.ac.in/fac-profiles/showprofile.php?empcode=ZZmVU&depts_name=MM'
p392
aS'http://www.iitkgp.ac.in/fac-profiles/showprofile.php?empcode=bZmVT&depts_name=MM'
p393
aS'http://www.iitkgp.ac.in/fac-profiles/showprofile.php?empcode=aYmVY&depts_name=MM'
p394
aS'http://www.iitkgp.ac.in/fac-profiles/showprofile.php?empcode=bamZU&depts_name=MM'
p395
aS'http://www.iitkgp.ac.in/fac-profiles/showprofile.php?empcode=SbmdS&depts_name=MM'
p396
aS'http://www.iitkgp.ac.in/fac-profiles/showprofile.php?empcode=bXmYQ&depts_name=MM'
p397
aS'http://www.iitkgp.ac.in/fac-profiles/showprofile.php?empcode=bYmdX&depts_name=MM'
p398
aS'http://www.iitkgp.ac.in/fac-profiles/showprofile.php?empcode=aTmXX&depts_name=MM'
p399
aS'http://www.iitkgp.ac.in/fac-profiles/showprofile.php?empcode=ZWmaW&depts_name=MM'
p400
aS'http://www.iitkgp.ac.in/fac-profiles/showprofile.php?empcode=SUmVX&depts_name=MM'
p401
aS'http://www.iitkgp.ac.in/fac-profiles/showprofile.php?empcode=ZWmdU&depts_name=MM'
p402
aS'http://www.iitkgp.ac.in/fac-profiles/showprofile.php?empcode=YXmdQ&depts_name=MM'
p403
aS'http://www.iitkgp.ac.in/fac-profiles/showprofile.php?empcode=SVmUW&depts_name=MM'
p404
aS'http://www.iitkgp.ac.in/fac-profiles/showprofile.php?empcode=bamYU&depts_name=MM'
p405
aS'http://www.iitkgp.ac.in/fac-profiles/showprofile.php?empcode=aVmVW&depts_name=MM'
p406
aS'http://www.iitkgp.ac.in/fac-profiles/showprofile.php?empcode=aVmWZ&depts_name=MM'
p407
aS'http://www.iitkgp.ac.in/fac-profiles/showprofile.php?empcode=bamZT&depts_name=MM'
p408
aS'http://www.iitkgp.ac.in/fac-profiles/showprofile.php?empcode=bTmVT&depts_name=MM'
p409
aS'http://www.iitkgp.ac.in/fac-profiles/showprofile.php?empcode=bXmYS&depts_name=MM'
p410
aS'http://www.iitkgp.ac.in/fac-profiles/showprofile.php?empcode=bUdUS&depts_name=MM'
p411
aS'http://www.iitkgp.ac.in/fac-profiles/showprofile.php?empcode=SVmUY&depts_name=MM'
p412
aS'http://www.iitkgp.ac.in/fac-profiles/showprofile.php?empcode=SWmVT&depts_name=MM'
p413
aS'http://www.iitkgp.ac.in/fac-profiles/showprofile.php?empcode=bUddY&depts_name=MM'
p414
aS'http://www.iitkgp.ac.in/fac-profiles/showprofile.php?empcode=bVmUS&depts_name=MM'
p415
aS'http://www.iitkgp.ac.in/fac-profiles/showprofile.php?empcode=bTmdX&depts_name=MM'
p416
aS'http://www.iitkgp.ac.in/fac-profiles/showprofile.php?empcode=bbddQ&depts_name=MM'
p417
aS'http://www.iitkgp.ac.in/fac-profiles/showprofile.php?empcode=SUmWS&depts_name=MM'
p418
aS'http://www.iitkgp.ac.in/fac-profiles/showprofile.php?empcode=ZbmVX&depts_name=MM'
p419
aS'http://www.iitkgp.ac.in/fac-profiles/showprofile.php?empcode=ZYmWT&depts_name=ME'
p420
aS'http://www.iitkgp.ac.in/fac-profiles/showprofile.php?empcode=bWmUU&depts_name=ME'
p421
aS'http://www.iitkgp.ac.in/fac-profiles/showprofile.php?empcode=SWmVR&depts_name=ME'
p422
aS'http://www.iitkgp.ac.in/fac-profiles/showprofile.php?empcode=bVmWR&depts_name=ME'
p423
aS'http://www.iitkgp.ac.in/fac-profiles/showprofile.php?empcode=abmZW&depts_name=ME'
p424
aS'http://www.iitkgp.ac.in/fac-profiles/showprofile.php?empcode=bbmcS&depts_name=ME'
p425
aS'http://www.iitkgp.ac.in/fac-profiles/showprofile.php?empcode=aSmaZ&depts_name=ME'
p426
aS'http://www.iitkgp.ac.in/fac-profiles/showprofile.php?empcode=ZSmUU&depts_name=ME'
p427
aS'http://www.iitkgp.ac.in/fac-profiles/showprofile.php?empcode=bUmdT&depts_name=ME'
p428
aS'http://www.iitkgp.ac.in/fac-profiles/showprofile.php?empcode=bTmVW&depts_name=ME'
p429
aS'http://www.iitkgp.ac.in/fac-profiles/showprofile.php?empcode=aVmdR&depts_name=ME'
p430
aS'http://www.iitkgp.ac.in/fac-profiles/showprofile.php?empcode=bYmYZ&depts_name=ME'
p431
aS'http://www.iitkgp.ac.in/fac-profiles/showprofile.php?empcode=ZYmWT&depts_name=ME'
p432
aS'http://www.iitkgp.ac.in/fac-profiles/showprofile.php?empcode=aamXZ&depts_name=ME'
p433
aS'http://www.iitkgp.ac.in/fac-profiles/showprofile.php?empcode=aZmVW&depts_name=ME'
p434
aS'http://www.iitkgp.ac.in/fac-profiles/showprofile.php?empcode=bZmXZ&depts_name=ME'
p435
aS'http://www.iitkgp.ac.in/fac-profiles/showprofile.php?empcode=bamXY&depts_name=ME'
p436
aS'http://www.iitkgp.ac.in/fac-profiles/showprofile.php?empcode=bXmUQ&depts_name=ME'
p437
aS'http://www.iitkgp.ac.in/fac-profiles/showprofile.php?empcode=SUmdW&depts_name=ME'
p438
aS'http://www.iitkgp.ac.in/fac-profiles/showprofile.php?empcode=aWmdU&depts_name=ME'
p439
aS'http://www.iitkgp.ac.in/fac-profiles/showprofile.php?empcode=2bgYU&depts_name=ME'
p440
aS'http://www.iitkgp.ac.in/fac-profiles/showprofile.php?empcode=ZWmbR&depts_name=ME'
p441
aS'http://www.iitkgp.ac.in/fac-profiles/showprofile.php?empcode=aSddW&depts_name=ME'
p442
aS'http://www.iitkgp.ac.in/fac-profiles/showprofile.php?empcode=aXmdU&depts_name=ME'
p443
aS'http://www.iitkgp.ac.in/fac-profiles/showprofile.php?empcode=bbddZ&depts_name=ME'
p444
aS'http://www.iitkgp.ac.in/fac-profiles/showprofile.php?empcode=bZmWS&depts_name=ME'
p445
aS'http://www.iitkgp.ac.in/fac-profiles/showprofile.php?empcode=bVmZZ&depts_name=ME'
p446
aS'http://www.iitkgp.ac.in/fac-profiles/showprofile.php?empcode=SUmdT&depts_name=ME'
p447
aS'http://www.iitkgp.ac.in/fac-profiles/showprofile.php?empcode=bamYQ&depts_name=ME'
p448
aS'http://www.iitkgp.ac.in/fac-profiles/showprofile.php?empcode=aWmVU&depts_name=ME'
p449
aS'http://www.iitkgp.ac.in/fac-profiles/showprofile.php?empcode=bUmdQ&depts_name=ME'
p450
aS'http://www.iitkgp.ac.in/fac-profiles/showprofile.php?empcode=bamdS&depts_name=ME'
p451
aS'http://www.iitkgp.ac.in/fac-profiles/showprofile.php?empcode=ZZmWY&depts_name=ME'
p452
aS'http://www.iitkgp.ac.in/fac-profiles/showprofile.php?empcode=bbmcY&depts_name=ME'
p453
aS'http://www.iitkgp.ac.in/fac-profiles/showprofile.php?empcode=ZWmdW&depts_name=ME'
p454
aS'http://www.iitkgp.ac.in/fac-profiles/showprofile.php?empcode=bbmcX&depts_name=ME'
p455
aS'http://www.iitkgp.ac.in/fac-profiles/showprofile.php?empcode=ZZmXT&depts_name=ME'
p456
aS'http://www.iitkgp.ac.in/fac-profiles/showprofile.php?empcode=aVmUT&depts_name=ME'
p457
aS'http://www.iitkgp.ac.in/fac-profiles/showprofile.php?empcode=bTmUZ&depts_name=ME'
p458
aS'http://www.iitkgp.ac.in/fac-profiles/showprofile.php?empcode=bVmXW&depts_name=ME'
p459
aS'http://www.iitkgp.ac.in/fac-profiles/showprofile.php?empcode=bXmYR&depts_name=ME'
p460
aS'http://www.iitkgp.ac.in/fac-profiles/showprofile.php?empcode=2bfVW&depts_name=ME'
p461
aS'http://www.iitkgp.ac.in/fac-profiles/showprofile.php?empcode=YXmdT&depts_name=ME'
p462
aS'http://www.iitkgp.ac.in/fac-profiles/showprofile.php?empcode=2bgZV&depts_name=ME'
p463
aS'http://www.iitkgp.ac.in/fac-profiles/showprofile.php?empcode=aYmdR&depts_name=MT'
p464
aS'http://www.iitkgp.ac.in/fac-profiles/showprofile.php?empcode=ZWmUZ&depts_name=MT'
p465
aS'http://www.iitkgp.ac.in/fac-profiles/showprofile.php?empcode=bZmUY&depts_name=MT'
p466
aS'http://www.iitkgp.ac.in/fac-profiles/showprofile.php?empcode=bXmVS&depts_name=MT'
p467
aS'http://www.iitkgp.ac.in/fac-profiles/showprofile.php?empcode=ZVmUU&depts_name=MT'
p468
aS'http://www.iitkgp.ac.in/fac-profiles/showprofile.php?empcode=bYmUS&depts_name=MT'
p469
aS'http://www.iitkgp.ac.in/fac-profiles/showprofile.php?empcode=SVmdV&depts_name=MT'
p470
aS'http://www.iitkgp.ac.in/fac-profiles/showprofile.php?empcode=bZmVW&depts_name=MT'
p471
aS'http://www.iitkgp.ac.in/fac-profiles/showprofile.php?empcode=bbmZW&depts_name=MT'
p472
aS'http://www.iitkgp.ac.in/fac-profiles/showprofile.php?empcode=zShdR&depts_name=MT'
p473
aS'http://www.iitkgp.ac.in/fac-profiles/showprofile.php?empcode=STmdU&depts_name=MT'
p474
aS'http://www.iitkgp.ac.in/fac-profiles/showprofile.php?empcode=aZmdR&depts_name=MT'
p475
aS'http://www.iitkgp.ac.in/fac-profiles/showprofile.php?empcode=aYmUV&depts_name=MT'
p476
aS'http://www.iitkgp.ac.in/fac-profiles/showprofile.php?empcode=bbmbR&depts_name=MT'
p477
aS'http://www.iitkgp.ac.in/fac-profiles/showprofile.php?empcode=bVmYX&depts_name=MT'
p478
aS'http://www.iitkgp.ac.in/fac-profiles/showprofile.php?empcode=SbmdR&depts_name=MT'
p479
aS'http://www.iitkgp.ac.in/fac-profiles/showprofile.php?empcode=bXmYZ&depts_name=MT'
p480
aS'http://www.iitkgp.ac.in/fac-profiles/showprofile.php?empcode=bZmVX&depts_name=MT'
p481
aS'http://www.iitkgp.ac.in/fac-profiles/showprofile.php?empcode=SWmdU&depts_name=MT'
p482
aS'http://www.iitkgp.ac.in/fac-profiles/showprofile.php?empcode=ZWmdS&depts_name=MT'
p483
aS'http://www.iitkgp.ac.in/fac-profiles/showprofile.php?empcode=bTmVY&depts_name=MT'
p484
aS'http://www.iitkgp.ac.in/fac-profiles/showprofile.php?empcode=zSfdQ&depts_name=MT'
p485
aS'http://www.iitkgp.ac.in/fac-profiles/showprofile.php?empcode=zSedQ&depts_name=MT'
p486
aS'http://www.iitkgp.ac.in/fac-profiles/showprofile.php?empcode=aYmdR&depts_name=MT'
p487
aS'http://www.iitkgp.ac.in/fac-profiles/showprofile.php?empcode=SUmXW&depts_name=MT'
p488
aS'http://www.iitkgp.ac.in/fac-profiles/showprofile.php?empcode=zSddT&depts_name=MT'
p489
aS'http://www.iitkgp.ac.in/fac-profiles/showprofile.php?empcode=SUmXT&depts_name=MT'
p490
aS'http://www.iitkgp.ac.in/fac-profiles/showprofile.php?empcode=2bmUV&depts_name=MT'
p491
aS'http://www.iitkgp.ac.in/fac-profiles/showprofile.php?empcode=bbmcW&depts_name=MT'
p492
aS'http://www.iitkgp.ac.in/fac-profiles/showprofile.php?empcode=bTmVW&depts_name=MD'
p493
aS'http://www.iitkgp.ac.in/fac-profiles/showprofile.php?empcode=bXmdU&depts_name=MD'
p494
aS'http://www.iitkgp.ac.in/fac-profiles/showprofile.php?empcode=bamWY&depts_name=MD'
p495
aS'http://www.iitkgp.ac.in/fac-profiles/showprofile.php?empcode=2bgaU&depts_name=MD'
p496
aS'http://www.iitkgp.ac.in/fac-profiles/showprofile.php?empcode=bYmVX&depts_name=MD'
p497
aS'http://www.iitkgp.ac.in/fac-profiles/showprofile.php?empcode=bTmVV&depts_name=MD'
p498
aS'http://www.iitkgp.ac.in/fac-profiles/showprofile.php?empcode=aXmdR&depts_name=MD'
p499
aS'http://www.iitkgp.ac.in/fac-profiles/showprofile.php?empcode=bYmWW&depts_name=MD'
p500
aS'http://www.iitkgp.ac.in/fac-profiles/showprofile.php?empcode=bXmdY&depts_name=MD'
p501
aS'http://www.iitkgp.ac.in/fac-profiles/showprofile.php?empcode=bYmVY&depts_name=MD'
p502
aS'http://www.iitkgp.ac.in/fac-profiles/showprofile.php?empcode=aSmYT&depts_name=MD'
p503
aS'http://www.iitkgp.ac.in/fac-profiles/showprofile.php?empcode=bbmcV&depts_name=MI'
p504
aS'http://www.iitkgp.ac.in/fac-profiles/showprofile.php?empcode=2bgcW&depts_name=MI'
p505
aS'http://www.iitkgp.ac.in/fac-profiles/showprofile.php?empcode=ZYmUY&depts_name=MI'
p506
aS'http://www.iitkgp.ac.in/fac-profiles/showprofile.php?empcode=aTmXS&depts_name=MI'
p507
aS'http://www.iitkgp.ac.in/fac-profiles/showprofile.php?empcode=bUmVT&depts_name=MI'
p508
aS'http://www.iitkgp.ac.in/fac-profiles/showprofile.php?empcode=aYmdQ&depts_name=MI'
p509
aS'http://www.iitkgp.ac.in/fac-profiles/showprofile.php?empcode=bSmdT&depts_name=MI'
p510
aS'http://www.iitkgp.ac.in/fac-profiles/showprofile.php?empcode=SbmdY&depts_name=MI'
p511
aS'http://www.iitkgp.ac.in/fac-profiles/showprofile.php?empcode=2bfbU&depts_name=MI'
p512
aS'http://www.iitkgp.ac.in/fac-profiles/showprofile.php?empcode=SbmUV&depts_name=MI'
p513
aS'http://www.iitkgp.ac.in/fac-profiles/showprofile.php?empcode=ZSmVQ&depts_name=MI'
p514
aS'http://www.iitkgp.ac.in/fac-profiles/showprofile.php?empcode=bbmcV&depts_name=MI'
p515
aS'http://www.iitkgp.ac.in/fac-profiles/showprofile.php?empcode=bamXR&depts_name=MI'
p516
aS'http://www.iitkgp.ac.in/fac-profiles/showprofile.php?empcode=bamdR&depts_name=MI'
p517
aS'http://www.iitkgp.ac.in/fac-profiles/showprofile.php?empcode=ZamdY&depts_name=MI'
p518
aS'http://www.iitkgp.ac.in/fac-profiles/showprofile.php?empcode=bVmYY&depts_name=MI'
p519
aS'http://www.iitkgp.ac.in/fac-profiles/showprofile.php?empcode=ZamdX&depts_name=MI'
p520
aS'http://www.iitkgp.ac.in/fac-profiles/showprofile.php?empcode=SbmdW&depts_name=MI'
p521
aS'http://www.iitkgp.ac.in/fac-profiles/showprofile.php?empcode=bXmYX&depts_name=N2'
p522
aS'http://www.iitkgp.ac.in/fac-profiles/showprofile.php?empcode=bYmYU&depts_name=N2'
p523
aS'http://www.iitkgp.ac.in/fac-profiles/showprofile.php?empcode=bXmYX&depts_name=N2'
p524
aS'http://www.iitkgp.ac.in/fac-profiles/showprofile.php?empcode=bXmYW&depts_name=N2'
p525
aS'http://www.iitkgp.ac.in/fac-profiles/showprofile.php?empcode=2beYS&depts_name=N2'
p526
aS'http://www.iitkgp.ac.in/fac-profiles/showprofile.php?empcode=SWmUS&depts_name=N2'
p527
aS'http://www.iitkgp.ac.in/fac-profiles/showprofile.php?empcode=bXmYU&depts_name=N2'
p528
aS'http://www.iitkgp.ac.in/fac-profiles/showprofile.php?empcode=bXmYV&depts_name=N2'
p529
aS'http://www.iitkgp.ac.in/fac-profiles/showprofile.php?empcode=bYmZT&depts_name=N2'
p530
aS'http://www.iitkgp.ac.in/fac-profiles/showprofile.php?empcode=bbmcQ&depts_name=NA'
p531
aS'http://www.iitkgp.ac.in/fac-profiles/showprofile.php?empcode=ZWmdV&depts_name=NA'
p532
aS'http://www.iitkgp.ac.in/fac-profiles/showprofile.php?empcode=bVmbW&depts_name=NA'
p533
aS'http://www.iitkgp.ac.in/fac-profiles/showprofile.php?empcode=SUmUS&depts_name=NA'
p534
aS'http://www.iitkgp.ac.in/fac-profiles/showprofile.php?empcode=SUmUU&depts_name=NA'
p535
aS'http://www.iitkgp.ac.in/fac-profiles/showprofile.php?empcode=SUmVR&depts_name=NA'
p536
aS'http://www.iitkgp.ac.in/fac-profiles/showprofile.php?empcode=ZYmXR&depts_name=NA'
p537
aS'http://www.iitkgp.ac.in/fac-profiles/showprofile.php?empcode=SbmdQ&depts_name=NA'
p538
aS'http://www.iitkgp.ac.in/fac-profiles/showprofile.php?empcode=bbmcQ&depts_name=NA'
p539
aS'http://www.iitkgp.ac.in/fac-profiles/showprofile.php?empcode=2bfcT&depts_name=NA'
p540
aS'http://www.iitkgp.ac.in/fac-profiles/showprofile.php?empcode=aSmUU&depts_name=NA'
p541
aS'http://www.iitkgp.ac.in/fac-profiles/showprofile.php?empcode=ZbmVU&depts_name=NA'
p542
aS'http://www.iitkgp.ac.in/fac-profiles/showprofile.php?empcode=bVmaV&depts_name=NA'
p543
aS'http://www.iitkgp.ac.in/fac-profiles/showprofile.php?empcode=aXmVT&depts_name=MP'
p544
aS'http://www.iitkgp.ac.in/fac-profiles/showprofile.php?empcode=SUmYR&depts_name=MP'
p545
aS'http://www.iitkgp.ac.in/fac-profiles/showprofile.php?empcode=SSmUX&depts_name=MP'
p546
aS'http://www.iitkgp.ac.in/fac-profiles/showprofile.php?empcode=SVmVZ&depts_name=MP'
p547
aS'http://www.iitkgp.ac.in/fac-profiles/showprofile.php?empcode=aZmdU&depts_name=MP'
p548
aS'http://www.iitkgp.ac.in/fac-profiles/showprofile.php?empcode=SbmUZ&depts_name=MP'
p549
aS'http://www.iitkgp.ac.in/fac-profiles/showprofile.php?empcode=SWmdS&depts_name=MP'
p550
aS'http://www.iitkgp.ac.in/fac-profiles/showprofile.php?empcode=uVmZR&depts_name=MP'
p551
aS'http://www.iitkgp.ac.in/fac-profiles/showprofile.php?empcode=bVmYZ&depts_name=MP'
p552
aS'http://www.iitkgp.ac.in/fac-profiles/showprofile.php?empcode=bbmcZ&depts_name=MP'
p553
aS'http://www.iitkgp.ac.in/fac-profiles/showprofile.php?empcode=aVmdS&depts_name=MP'
p554
aS'http://www.iitkgp.ac.in/fac-profiles/showprofile.php?empcode=SUmYS&depts_name=MP'
p555
aS'http://www.iitkgp.ac.in/fac-profiles/showprofile.php?empcode=SUmWY&depts_name=MP'
p556
aS'http://www.iitkgp.ac.in/fac-profiles/showprofile.php?empcode=aZmXV&depts_name=MP'
p557
aS'http://www.iitkgp.ac.in/fac-profiles/showprofile.php?empcode=bbmcR&depts_name=MP'
p558
aS'http://www.iitkgp.ac.in/fac-profiles/showprofile.php?empcode=bTmWW&depts_name=MP'
p559
aS'http://www.iitkgp.ac.in/fac-profiles/showprofile.php?empcode=bYmZS&depts_name=MP'
p560
aS'http://www.iitkgp.ac.in/fac-profiles/showprofile.php?empcode=SUmWT&depts_name=MP'
p561
aS'http://www.iitkgp.ac.in/fac-profiles/showprofile.php?empcode=zSfdW&depts_name=MP'
p562
aS'http://www.iitkgp.ac.in/fac-profiles/showprofile.php?empcode=uWmdS&depts_name=MP'
p563
aS'http://www.iitkgp.ac.in/fac-profiles/showprofile.php?empcode=bSmUW&depts_name=MP'
p564
aS'http://www.iitkgp.ac.in/fac-profiles/showprofile.php?empcode=bamXU&depts_name=MP'
p565
aS'http://www.iitkgp.ac.in/fac-profiles/showprofile.php?empcode=aSddY&depts_name=MP'
p566
aS'http://www.iitkgp.ac.in/fac-profiles/showprofile.php?empcode=SVmUZ&depts_name=MP'
p567
aS'http://www.iitkgp.ac.in/fac-profiles/showprofile.php?empcode=aadWT&depts_name=MP'
p568
aS'http://www.iitkgp.ac.in/fac-profiles/showprofile.php?empcode=SWmUU&depts_name=MP'
p569
aS'http://www.iitkgp.ac.in/fac-profiles/showprofile.php?empcode=bVmXY&depts_name=MP'
p570
aS'http://www.iitkgp.ac.in/fac-profiles/showprofile.php?empcode=SUmWU&depts_name=MP'
p571
aS'http://www.iitkgp.ac.in/fac-profiles/showprofile.php?empcode=ZVmWS&depts_name=MP'
p572
aS'http://www.iitkgp.ac.in/fac-profiles/showprofile.php?empcode=aZmXX&depts_name=MP'
p573
aS'http://www.iitkgp.ac.in/fac-profiles/showprofile.php?empcode=bVmZU&depts_name=MP'
p574
aS'http://www.iitkgp.ac.in/fac-profiles/showprofile.php?empcode=bYmWS&depts_name=MP'
p575
aS'http://www.iitkgp.ac.in/fac-profiles/showprofile.php?empcode=aXmVT&depts_name=MP'
p576
aS'http://www.iitkgp.ac.in/fac-profiles/showprofile.php?empcode=SSmUZ&depts_name=RJ'
p577
aS'http://www.iitkgp.ac.in/fac-profiles/showprofile.php?empcode=2beXZ&depts_name=RJ'
p578
aS'http://www.iitkgp.ac.in/fac-profiles/showprofile.php?empcode=SVmUT&depts_name=RJ'
p579
aS'http://www.iitkgp.ac.in/fac-profiles/showprofile.php?empcode=SUmVZ&depts_name=RJ'
p580
aS'http://www.iitkgp.ac.in/fac-profiles/showprofile.php?empcode=SUmUY&depts_name=RJ'
p581
aS'http://www.iitkgp.ac.in/fac-profiles/showprofile.php?empcode=SVmUQ&depts_name=RJ'
p582
aS'http://www.iitkgp.ac.in/fac-profiles/showprofile.php?empcode=2bfcU&depts_name=RJ'
p583
aS'http://www.iitkgp.ac.in/fac-profiles/showprofile.php?empcode=SUmVQ&depts_name=RJ'
p584
aS'http://www.iitkgp.ac.in/fac-profiles/showprofile.php?empcode=aZmWU&depts_name=ID'
p585
aS'http://www.iitkgp.ac.in/fac-profiles/showprofile.php?empcode=SbmdT&depts_name=ID'
p586
aS'http://www.iitkgp.ac.in/fac-profiles/showprofile.php?empcode=SWmVZ&depts_name=ID'
p587
aS'http://www.iitkgp.ac.in/fac-profiles/showprofile.php?empcode=2bebT&depts_name=RG'
p588
aS'http://www.iitkgp.ac.in/fac-profiles/showprofile.php?empcode=SbmUS&depts_name=RG'
p589
aS'http://www.iitkgp.ac.in/fac-profiles/showprofile.php?empcode=bYmVZ&depts_name=RG'
p590
aS'http://www.iitkgp.ac.in/fac-profiles/showprofile.php?empcode=bYmUW&depts_name=RG'
p591
aS'http://www.iitkgp.ac.in/fac-profiles/showprofile.php?empcode=bZmWU&depts_name=RG'
p592
aS'http://www.iitkgp.ac.in/fac-profiles/showprofile.php?empcode=bXmUR&depts_name=RG'
p593
aS'http://www.iitkgp.ac.in/fac-profiles/showprofile.php?empcode=bYmYW&depts_name=RG'
p594
aS'http://www.iitkgp.ac.in/fac-profiles/showprofile.php?empcode=bamYY&depts_name=RG'
p595
aS'http://www.iitkgp.ac.in/fac-profiles/showprofile.php?empcode=SUmWW&depts_name=RG'
p596
aS'http://www.iitkgp.ac.in/fac-profiles/showprofile.php?empcode=SbmUU&depts_name=RG'
p597
aS'http://www.iitkgp.ac.in/fac-profiles/showprofile.php?empcode=2bebT&depts_name=RG'
p598
aS'http://www.iitkgp.ac.in/fac-profiles/showprofile.php?empcode=aXmdS&depts_name=RE'
p599
aS'http://www.iitkgp.ac.in/fac-profiles/showprofile.php?empcode=bUddV&depts_name=RE'
p600
aS'http://www.iitkgp.ac.in/fac-profiles/showprofile.php?empcode=SbmdU&depts_name=RE'
p601
aS'http://www.iitkgp.ac.in/fac-profiles/showprofile.php?empcode=aXmdS&depts_name=RE'
p602
aS'http://www.iitkgp.ac.in/fac-profiles/showprofile.php?empcode=SUmXS&depts_name=RE'
p603
aS'http://www.iitkgp.ac.in/fac-profiles/showprofile.php?empcode=ZUmdT&depts_name=RT'
p604
aS'http://www.iitkgp.ac.in/fac-profiles/showprofile.php?empcode=ZVmdU&depts_name=RT'
p605
aS'http://www.iitkgp.ac.in/fac-profiles/showprofile.php?empcode=YYmaZ&depts_name=RT'
p606
aS'http://www.iitkgp.ac.in/fac-profiles/showprofile.php?empcode=bVmbQ&depts_name=RT'
p607
aS'http://www.iitkgp.ac.in/fac-profiles/showprofile.php?empcode=SWmdV&depts_name=RT'
p608
aS'http://www.iitkgp.ac.in/fac-profiles/showprofile.php?empcode=ZUmdT&depts_name=RT'
p609
aS'http://www.iitkgp.ac.in/fac-profiles/showprofile.php?empcode=ZUmdS&depts_name=RT'
p610
aS'http://www.iitkgp.ac.in/fac-profiles/showprofile.php?empcode=bVmZX&depts_name=RT'
p611
aS'http://www.iitkgp.ac.in/fac-profiles/showprofile.php?empcode=bUmdR&depts_name=RT'
p612
aS'http://www.iitkgp.ac.in/fac-profiles/showprofile.php?empcode=aamaT&depts_name=WM'
p613
aS'http://www.iitkgp.ac.in/fac-profiles/showprofile.php?empcode=STmdY&depts_name=WM'
p614
aS'http://www.iitkgp.ac.in/fac-profiles/showprofile.php?empcode=SUmWQ&depts_name=WM'
p615
aS'http://www.iitkgp.ac.in/fac-profiles/showprofile.php?empcode=abmaS&depts_name=RD'
p616
aS'http://www.iitkgp.ac.in/fac-profiles/showprofile.php?empcode=abmaY&depts_name=RD'
p617
aS'http://www.iitkgp.ac.in/fac-profiles/showprofile.php?empcode=YWmXW&depts_name=RD'
p618
aS'http://www.iitkgp.ac.in/fac-profiles/showprofile.php?empcode=abmZY&depts_name=SM'
p619
aS'http://www.iitkgp.ac.in/fac-profiles/showprofile.php?empcode=2bgdZ&depts_name=SM'
p620
aS'http://www.iitkgp.ac.in/fac-profiles/showprofile.php?empcode=bamZS&depts_name=SM'
p621
aS'http://www.iitkgp.ac.in/fac-profiles/showprofile.php?empcode=SSmUT&depts_name=SM'
p622
aS'http://www.iitkgp.ac.in/fac-profiles/showprofile.php?empcode=SVmUU&depts_name=SM'
p623
aS'http://www.iitkgp.ac.in/fac-profiles/showprofile.php?empcode=bVmVQ&depts_name=SM'
p624
aS'http://www.iitkgp.ac.in/fac-profiles/showprofile.php?empcode=zSmdS&depts_name=SM'
p625
aS'http://www.iitkgp.ac.in/fac-profiles/showprofile.php?empcode=abmZY&depts_name=SM'
p626
aS'http://www.iitkgp.ac.in/fac-profiles/showprofile.php?empcode=bamYZ&depts_name=SM'
p627
aS'http://www.iitkgp.ac.in/fac-profiles/showprofile.php?empcode=bYmXU&depts_name=SM'
p628
aS'http://www.iitkgp.ac.in/fac-profiles/showprofile.php?empcode=bZmUV&depts_name=SM'
p629
aS'http://www.iitkgp.ac.in/fac-profiles/showprofile.php?empcode=SVmVT&depts_name=SM'
p630
aS'http://www.iitkgp.ac.in/fac-profiles/showprofile.php?empcode=2bgYV&depts_name=SM'
p631
aS'http://www.iitkgp.ac.in/fac-profiles/showprofile.php?empcode=bYmUX&depts_name=SM'
p632
aS'http://www.iitkgp.ac.in/fac-profiles/showprofile.php?empcode=SVmUX&depts_name=SM'
p633
aS'http://www.iitkgp.ac.in/fac-profiles/showprofile.php?empcode=bYmWT&depts_name=SM'
p634
aS'http://www.iitkgp.ac.in/fac-profiles/showprofile.php?empcode=bbddT&depts_name=SM'
p635
aS'http://www.iitkgp.ac.in/fac-profiles/showprofile.php?empcode=bWmUW&depts_name=SM'
p636
aS'http://www.iitkgp.ac.in/fac-profiles/showprofile.php?empcode=bamXT&depts_name=SM'
p637
aS'http://www.iitkgp.ac.in/fac-profiles/showprofile.php?empcode=bTmVR&depts_name=SM'
p638
aS'http://www.iitkgp.ac.in/fac-profiles/showprofile.php?empcode=zSdUZ&depts_name=SM'
p639
aS'http://www.iitkgp.ac.in/fac-profiles/showprofile.php?empcode=bXmWX&depts_name=SM'
p640
a.